; Function Attrs: mustprogress uwtable
define hidden void @_ZN8facebook6hermes7tracing20TracingHermesRuntime33flushAndDisableBridgeTrafficTraceB5cxx11Ev(ptr noalias sret(%"class.std::__cxx11::basic_string") align 8 %agg.result, ptr noundef nonnull align 8 dereferenceable(664) %this) unnamed_addr #0 align 2 {
entry:
  %ref.tmp = alloca %"class.std::__cxx11::basic_string", align 8
  %flushedAndDisabled_ = getelementptr inbounds i8, ptr %this, i64 624
  %0 = load i8, ptr %flushedAndDisabled_, align 8
  %1 = and i8 %0, 1
  %tobool.not = icmp eq i8 %1, 0
  br i1 %tobool.not, label %if.end, label %if.then

if.then:                                          ; preds = %entry
  %committedTraceFilename_ = getelementptr inbounds i8, ptr %this, i64 632
  tail call void @_ZNSt7__cxx1112basic_stringIcSt11char_traitsIcESaIcEEC1ERKS4_(ptr noundef nonnull align 8 dereferenceable(32) %agg.result, ptr noundef nonnull align 8 dereferenceable(32) %committedTraceFilename_)
  br label %return

if.end:                                           ; preds = %entry
  %trace_.i = getelementptr inbounds i8, ptr %this, i64 32
  %plain_.i.i = getelementptr inbounds i8, ptr %this, i64 16
  %2 = load ptr, ptr %plain_.i.i, align 8
  %call3 = tail call noundef nonnull align 1 dereferenceable(1) ptr @_ZNK8facebook6hermes13HermesRuntime14getGCExecTraceEv(ptr noundef nonnull align 8 dereferenceable(8) %2)
  tail call void @_ZN8facebook6hermes7tracing10SynthTrace15flushAndDisableERKN6hermes2vm11GCExecTraceE(ptr noundef nonnull align 8 dereferenceable(48) %trace_.i, ptr noundef nonnull align 1 dereferenceable(1) %call3)
  store i8 1, ptr %flushedAndDisabled_, align 8
  %_M_manager.i.i = getelementptr inbounds i8, ptr %this, i64 568
  %3 = load ptr, ptr %_M_manager.i.i, align 8, !noalias !305
  %tobool.not.i.i = icmp eq ptr %3, null
  br i1 %tobool.not.i.i, label %if.then.i, label %_ZNKSt8functionIFNSt7__cxx1112basic_stringIcSt11char_traitsIcESaIcEEEvEEclEv.exit

if.then.i:                                        ; preds = %if.end
  tail call void @_ZSt25__throw_bad_function_callv() #31, !noalias !305
  unreachable

_ZNKSt8functionIFNSt7__cxx1112basic_stringIcSt11char_traitsIcESaIcEEEvEEclEv.exit: ; preds = %if.end
  %commitAction_ = getelementptr inbounds i8, ptr %this, i64 552
  %_M_invoker.i = getelementptr inbounds i8, ptr %this, i64 576
  %4 = load ptr, ptr %_M_invoker.i, align 8, !noalias !305
  call void %4(ptr nonnull sret(%"class.std::__cxx11::basic_string") align 8 %ref.tmp, ptr noundef nonnull align 8 dereferenceable(16) %commitAction_)
  %committedTraceFilename_5 = getelementptr inbounds i8, ptr %this, i64 632
  %call6 = call noundef nonnull align 8 dereferenceable(32) ptr @_ZNSt7__cxx1112basic_stringIcSt11char_traitsIcESaIcEEaSEOS4_(ptr noundef nonnull align 8 dereferenceable(32) %committedTraceFilename_5, ptr noundef nonnull align 8 dereferenceable(32) %ref.tmp) #27
  call void @_ZNSt7__cxx1112basic_stringIcSt11char_traitsIcESaIcEED1Ev(ptr noundef nonnull align 8 dereferenceable(32) %ref.tmp) #27
  call void @_ZNSt7__cxx1112basic_stringIcSt11char_traitsIcESaIcEEC1ERKS4_(ptr noundef nonnull align 8 dereferenceable(32) %agg.result, ptr noundef nonnull align 8 dereferenceable(32) %committedTraceFilename_5)
  br label %return

return:                                           ; preds = %_ZNKSt8functionIFNSt7__cxx1112basic_stringIcSt11char_traitsIcESaIcEEEvEEclEv.exit, %if.then
  ret void
}